; Function Attrs: mustprogress nounwind uwtable
define hidden void @_ZN4ZCPU10initializeEv() local_unnamed_addr #0 align 2 {
  %1 = alloca %class.GCLogPreciousHandle, align 8
  %2 = load i32, ptr @_ZN2os16_processor_countE, align 4
  %3 = zext i32 %2 to i64
  %4 = shl nuw nsw i64 %3, 7
  %5 = add nuw nsw i64 %4, 128
  %6 = tail call noundef ptr @_Z12AllocateHeapm8MEMFLAGSN17AllocFailStrategy13AllocFailEnumE(i64 noundef %5, i8 noundef zeroext 5, i32 noundef 0) #5
  %7 = ptrtoint ptr %6 to i64
  %8 = add i64 %7, 127
  %9 = and i64 %8, -128
  %10 = inttoptr i64 %9 to ptr
  %.not.i = icmp eq i32 %2, 0
  br i1 %.not.i, label %_ZN11PaddedArrayIN4ZCPU12ZCPUAffinityEL8MEMFLAGS5ELm128EE17create_unfreeableEj.exit.thread, label %.lr.ph.i

_ZN11PaddedArrayIN4ZCPU12ZCPUAffinityEL8MEMFLAGS5ELm128EE17create_unfreeableEj.exit.thread: ; preds = %0
  store ptr %10, ptr @_ZN4ZCPU9_affinityE, align 8
  br label %._crit_edge

.lr.ph.i:                                         ; preds = %0, %.lr.ph.i
  %indvars.iv.i = phi i64 [ %indvars.iv.next.i, %.lr.ph.i ], [ 0, %0 ]
  %11 = getelementptr inbounds %class.PaddedEnd, ptr %10, i64 %indvars.iv.i
  store i64 0, ptr %11, align 128
  %indvars.iv.next.i = add nuw nsw i64 %indvars.iv.i, 1
  %exitcond.not.i = icmp eq i64 %indvars.iv.next.i, %3
  br i1 %exitcond.not.i, label %_ZN11PaddedArrayIN4ZCPU12ZCPUAffinityEL8MEMFLAGS5ELm128EE17create_unfreeableEj.exit, label %.lr.ph.i, !llvm.loop !6

_ZN11PaddedArrayIN4ZCPU12ZCPUAffinityEL8MEMFLAGS5ELm128EE17create_unfreeableEj.exit: ; preds = %.lr.ph.i
  store ptr %10, ptr @_ZN4ZCPU9_affinityE, align 8
  br i1 %.not.i, label %._crit_edge, label %.lr.ph

.lr.ph:                                           ; preds = %_ZN11PaddedArrayIN4ZCPU12ZCPUAffinityEL8MEMFLAGS5ELm128EE17create_unfreeableEj.exit, %.lr.ph
  %indvars.iv = phi i64 [ %indvars.iv.next, %.lr.ph ], [ 0, %_ZN11PaddedArrayIN4ZCPU12ZCPUAffinityEL8MEMFLAGS5ELm128EE17create_unfreeableEj.exit ]
  %12 = load ptr, ptr @_ZN4ZCPU9_affinityE, align 8
  %13 = getelementptr inbounds %class.PaddedEnd, ptr %12, i64 %indvars.iv
  store ptr inttoptr (i64 -1 to ptr), ptr %13, align 8
  %indvars.iv.next = add nuw nsw i64 %indvars.iv, 1
  %exitcond.not = icmp eq i64 %indvars.iv.next, %3
  br i1 %exitcond.not, label %._crit_edge, label %.lr.ph, !llvm.loop !8

._crit_edge:                                      ; preds = %.lr.ph, %_ZN11PaddedArrayIN4ZCPU12ZCPUAffinityEL8MEMFLAGS5ELm128EE17create_unfreeableEj.exit.thread, %_ZN11PaddedArrayIN4ZCPU12ZCPUAffinityEL8MEMFLAGS5ELm128EE17create_unfreeableEj.exit
  store i32 3, ptr %1, align 8
  %.sroa.21.0..sroa_idx.i = getelementptr inbounds i8, ptr %1, i64 8
  store ptr @_ZN16LogTagSetMappingILN6LogTag4typeE49ELS1_58ELS1_0ELS1_0ELS1_0ELS1_0EE7_tagsetE, ptr %.sroa.21.0..sroa_idx.i, align 8
  %14 = load i32, ptr @_ZN2os16_processor_countE, align 4
  %15 = load i32, ptr @_ZN2os31_initial_active_processor_countE, align 4
  call void (ptr, ptr, ...) @_ZN19GCLogPreciousHandle5writeEPKcz(ptr noundef nonnull align 8 dereferenceable(16) %1, ptr noundef nonnull @.str, i32 noundef %14, i32 noundef %15)
  ret void
}